target datalayout = "e-m:e-p270:32:32-p271:32:32-p272:64:64-i64:64-i128:128-f80:128-n8:16:32:64-S128"
target triple = "x86_64-pc-linux-gnu"

@g_ascii_table = external constant ptr, align 8
@.str.382 = private unnamed_addr constant [45 x i8] c"XTEA keys are 32 character long hex strings.\00", align 1

; Function Attrs: null_pointer_is_valid sspstrong uwtable
define internal zeroext i1 @xteakeys_uat_fld_key_chk_cb(ptr noundef %0, ptr noundef %1, i32 noundef %2, ptr noundef %3, ptr noundef %4, ptr noundef %5) #0 {
  %7 = alloca i1, align 1
  %8 = alloca ptr, align 8
  %9 = alloca ptr, align 8
  %10 = alloca i32, align 4
  %11 = alloca ptr, align 8
  %12 = alloca ptr, align 8
  %13 = alloca ptr, align 8
  %14 = alloca i64, align 8
  %15 = alloca i32, align 4
  store ptr %0, ptr %8, align 8
  store ptr %1, ptr %9, align 8
  store i32 %2, ptr %10, align 4
  store ptr %3, ptr %11, align 8
  store ptr %4, ptr %12, align 8
  store ptr %5, ptr %13, align 8
  %16 = load i32, ptr %10, align 4
  %17 = icmp uge i32 %16, 32
  br i1 %17, label %18, label %63

18:                                               ; preds = %6
  call void @llvm.lifetime.start.p0(i64 8, ptr %14) #17
  store i64 0, ptr %14, align 8
  br label %19

19:                                               ; preds = %44, %18
  %20 = load ptr, ptr @g_ascii_table, align 8
  %21 = load ptr, ptr %9, align 8
  %22 = load i8, ptr %21, align 1
  %23 = zext i8 %22 to i64
  %24 = getelementptr i16, ptr %20, i64 %23
  %25 = load i16, ptr %24, align 2
  %26 = zext i16 %25 to i32
  %27 = and i32 %26, 128
  %28 = icmp ne i32 %27, 0
  br i1 %28, label %29, label %30

29:                                               ; preds = %19
  br label %44

30:                                               ; preds = %19
  %31 = load ptr, ptr @g_ascii_table, align 8
  %32 = load ptr, ptr %9, align 8
  %33 = load i8, ptr %32, align 1
  %34 = zext i8 %33 to i64
  %35 = getelementptr i16, ptr %31, i64 %34
  %36 = load i16, ptr %35, align 2
  %37 = zext i16 %36 to i32
  %38 = and i32 %37, 1024
  %39 = icmp ne i32 %38, 0
  br i1 %39, label %41, label %40

40:                                               ; preds = %30
  br label %49

41:                                               ; preds = %30
  %42 = load i64, ptr %14, align 8
  %43 = add i64 %42, 1
  store i64 %43, ptr %14, align 8
  br label %44

44:                                               ; preds = %41, %29
  %45 = load ptr, ptr %9, align 8
  %46 = getelementptr i8, ptr %45, i32 1
  store ptr %46, ptr %9, align 8
  %47 = load i8, ptr %46, align 1
  %48 = icmp ne i8 %47, 0
  br i1 %48, label %19, label %49, !llvm.loop !10

49:                                               ; preds = %44, %40
  %50 = load ptr, ptr %9, align 8
  %51 = load i8, ptr %50, align 1
  %52 = sext i8 %51 to i32
  %53 = icmp eq i32 %52, 0
  br i1 %53, label %54, label %59

54:                                               ; preds = %49
  %55 = load i64, ptr %14, align 8
  %56 = icmp eq i64 %55, 32
  br i1 %56, label %57, label %59

57:                                               ; preds = %54
  %58 = load ptr, ptr %13, align 8
  store ptr null, ptr %58, align 8
  store i1 true, ptr %7, align 1
  store i32 1, ptr %15, align 4
  br label %60

59:                                               ; preds = %54, %49
  store i32 0, ptr %15, align 4
  br label %60

60:                                               ; preds = %59, %57
  call void @llvm.lifetime.end.p0(i64 8, ptr %14) #17
  %61 = load i32, ptr %15, align 4
  switch i32 %61, label %68 [
    i32 0, label %62
    i32 1, label %66
  ]

62:                                               ; preds = %60
  br label %63

63:                                               ; preds = %62, %6
  %64 = call noalias ptr (ptr, ptr, ...) @wmem_strdup_printf(ptr noundef null, ptr noundef @.str.382)
  %65 = load ptr, ptr %13, align 8
  store ptr %64, ptr %65, align 8
  store i1 false, ptr %7, align 1
  br label %66

66:                                               ; preds = %63, %60
  %67 = load i1, ptr %7, align 1
  ret i1 %67

68:                                               ; preds = %60
  unreachable
}