; Function Attrs: null_pointer_is_valid sspstrong uwtable
define internal noundef zeroext i1 @xteakeys_uat_fld_key_chk_cb(ptr readnone captures(none) %0, ptr noundef readonly captures(none) %1, i32 noundef %2, ptr readnone captures(none) %3, ptr readnone captures(none) %4, ptr noundef writeonly captures(none) %5) #0 {
  %7 = icmp ugt i32 %2, 31
  br i1 %7, label %.preheader, label %.thread

.preheader:                                       ; preds = %6
  %8 = load ptr, ptr @g_ascii_table, align 8
  %.pre = load i8, ptr %1, align 1
  br label %9

9:                                                ; preds = %.preheader, %20
  %10 = phi i8 [ %22, %20 ], [ %.pre, %.preheader ]
  %.014 = phi ptr [ %21, %20 ], [ %1, %.preheader ]
  %.011 = phi i64 [ %.1, %20 ], [ 0, %.preheader ]
  %11 = zext i8 %10 to i64
  %12 = getelementptr i16, ptr %8, i64 %11
  %13 = load i16, ptr %12, align 2
  %14 = zext i16 %13 to i32
  %15 = and i32 %14, 128
  %.not = icmp eq i32 %15, 0
  br i1 %.not, label %16, label %20

16:                                               ; preds = %9
  %17 = and i32 %14, 1024
  %.not16 = icmp eq i32 %17, 0
  br i1 %.not16, label %23, label %18

18:                                               ; preds = %16
  %19 = add i64 %.011, 1
  br label %20

20:                                               ; preds = %9, %18
  %.1 = phi i64 [ %.011, %9 ], [ %19, %18 ]
  %21 = getelementptr i8, ptr %.014, i64 1
  %22 = load i8, ptr %21, align 1
  %.not17 = icmp eq i8 %22, 0
  br i1 %.not17, label %23, label %9, !llvm.loop !12

23:                                               ; preds = %16, %20
  %24 = phi i8 [ 0, %20 ], [ %10, %16 ]
  %.2 = phi i64 [ %.1, %20 ], [ %.011, %16 ]
  %25 = icmp eq i8 %24, 0
  %26 = icmp eq i64 %.2, 32
  %or.cond = select i1 %25, i1 %26, i1 false
  br i1 %or.cond, label %28, label %.thread

.thread:                                          ; preds = %23, %6
  %27 = tail call noalias ptr (ptr, ptr, ...) @wmem_strdup_printf(ptr noundef null, ptr noundef nonnull @.str.382)
  br label %28

28:                                               ; preds = %23, %.thread
  %storemerge = phi ptr [ %27, %.thread ], [ null, %23 ]
  %.113 = phi i1 [ false, %.thread ], [ true, %23 ]
  store ptr %storemerge, ptr %5, align 8
  ret i1 %.113
}